; Function Attrs: nounwind uwtable
define dso_local void @appendStringInfoSpaces(ptr noundef captures(none) %0, i32 noundef %1) local_unnamed_addr #0 {
  %3 = icmp sgt i32 %1, 0
  br i1 %3, label %4, label %16

4:                                                ; preds = %2
  tail call void @enlargeStringInfo(ptr noundef %0, i32 noundef %1)
  %5 = load ptr, ptr %0, align 8
  %6 = getelementptr inbounds nuw i8, ptr %0, i64 8
  %7 = load i32, ptr %6, align 8
  %8 = sext i32 %7 to i64
  %9 = getelementptr inbounds i8, ptr %5, i64 %8
  %10 = zext nneg i32 %1 to i64
  tail call void @llvm.memset.p0.i64(ptr align 1 %9, i8 32, i64 %10, i1 false)
  %11 = load i32, ptr %6, align 8
  %12 = add i32 %11, %1
  store i32 %12, ptr %6, align 8
  %13 = load ptr, ptr %0, align 8
  %14 = sext i32 %12 to i64
  %15 = getelementptr inbounds i8, ptr %13, i64 %14
  store i8 0, ptr %15, align 1
  br label %16

16:                                               ; preds = %4, %2
  ret void
}